target datalayout = "e-m:e-p270:32:32-p271:32:32-p272:64:64-i64:64-i128:128-f80:128-n8:16:32:64-S128"
target triple = "x86_64-unknown-linux-gnu"

%"class.cvc5::internal::NodeTemplate" = type { ptr }
%"class.cvc5::internal::TypeNode" = type { ptr }
%"class.cvc5::internal::theory::quantifiers::inst::InstMatchGenerator" = type { %"class.cvc5::internal::theory::quantifiers::inst::IMGenerator", %"class.cvc5::internal::NodeTemplate", %"class.cvc5::internal::NodeTemplate", %"class.cvc5::internal::NodeTemplate", i8, ptr, %"class.std::vector", %"class.std::vector.0", %"class.std::vector.5", ptr, %"class.cvc5::internal::NodeTemplate", %"class.cvc5::internal::NodeTemplate", %"class.std::map", %"class.cvc5::internal::NodeTemplate", i8, i8, %"class.cvc5::internal::TypeNode", %"class.cvc5::internal::NodeTemplate" }
%"class.cvc5::internal::theory::quantifiers::inst::IMGenerator" = type { %"class.cvc5::internal::EnvObj", ptr, ptr, ptr }
%"class.cvc5::internal::EnvObj" = type { ptr, ptr }
%"class.std::vector" = type { %"struct.std::_Vector_base" }
%"struct.std::_Vector_base" = type { %"struct.std::_Vector_base<cvc5::internal::theory::quantifiers::inst::InstMatchGenerator *, std::allocator<cvc5::internal::theory::quantifiers::inst::InstMatchGenerator *>>::_Vector_impl" }
%"struct.std::_Vector_base<cvc5::internal::theory::quantifiers::inst::InstMatchGenerator *, std::allocator<cvc5::internal::theory::quantifiers::inst::InstMatchGenerator *>>::_Vector_impl" = type { %"struct.std::_Vector_base<cvc5::internal::theory::quantifiers::inst::InstMatchGenerator *, std::allocator<cvc5::internal::theory::quantifiers::inst::InstMatchGenerator *>>::_Vector_impl_data" }
%"struct.std::_Vector_base<cvc5::internal::theory::quantifiers::inst::InstMatchGenerator *, std::allocator<cvc5::internal::theory::quantifiers::inst::InstMatchGenerator *>>::_Vector_impl_data" = type { ptr, ptr, ptr }
%"class.std::vector.0" = type { %"struct.std::_Vector_base.1" }
%"struct.std::_Vector_base.1" = type { %"struct.std::_Vector_base<unsigned long, std::allocator<unsigned long>>::_Vector_impl" }
%"struct.std::_Vector_base<unsigned long, std::allocator<unsigned long>>::_Vector_impl" = type { %"struct.std::_Vector_base<unsigned long, std::allocator<unsigned long>>::_Vector_impl_data" }
%"struct.std::_Vector_base<unsigned long, std::allocator<unsigned long>>::_Vector_impl_data" = type { ptr, ptr, ptr }
%"class.std::vector.5" = type { %"struct.std::_Vector_base.6" }
%"struct.std::_Vector_base.6" = type { %"struct.std::_Vector_base<long, std::allocator<long>>::_Vector_impl" }
%"struct.std::_Vector_base<long, std::allocator<long>>::_Vector_impl" = type { %"struct.std::_Vector_base<long, std::allocator<long>>::_Vector_impl_data" }
%"struct.std::_Vector_base<long, std::allocator<long>>::_Vector_impl_data" = type { ptr, ptr, ptr }
%"class.std::map" = type { %"class.std::_Rb_tree" }
%"class.std::_Rb_tree" = type { %"struct.std::_Rb_tree<cvc5::internal::NodeTemplate<true>, std::pair<const cvc5::internal::NodeTemplate<true>, bool>, std::_Select1st<std::pair<const cvc5::internal::NodeTemplate<true>, bool>>, std::less<cvc5::internal::NodeTemplate<true>>>::_Rb_tree_impl" }
%"struct.std::_Rb_tree<cvc5::internal::NodeTemplate<true>, std::pair<const cvc5::internal::NodeTemplate<true>, bool>, std::_Select1st<std::pair<const cvc5::internal::NodeTemplate<true>, bool>>, std::less<cvc5::internal::NodeTemplate<true>>>::_Rb_tree_impl" = type { %"struct.std::_Rb_tree_key_compare", %"struct.std::_Rb_tree_header" }
%"struct.std::_Rb_tree_key_compare" = type { %"struct.std::less" }
%"struct.std::less" = type { i8 }
%"struct.std::_Rb_tree_header" = type { %"struct.std::_Rb_tree_node_base", i64 }
%"struct.std::_Rb_tree_node_base" = type { i32, ptr, ptr, ptr }

; Function Attrs: mustprogress uwtable
define hidden void @_ZN4cvc58internal6theory11quantifiers4inst18InstMatchGenerator12setActiveAddEb(ptr noundef nonnull align 8 dereferenceable(256) %this, i1 noundef zeroext %val) #4 align 2 {
entry:
  %this.addr = alloca ptr, align 8
  %val.addr = alloca i8, align 1
  store ptr %this, ptr %this.addr, align 8
  %frombool = zext i1 %val to i8
  store i8 %frombool, ptr %val.addr, align 1
  %this1 = load ptr, ptr %this.addr, align 8
  %0 = load i8, ptr %val.addr, align 1
  %tobool = trunc i8 %0 to i1
  %d_active_add = getelementptr inbounds %"class.cvc5::internal::theory::quantifiers::inst::InstMatchGenerator", ptr %this1, i32 0, i32 15
  %frombool2 = zext i1 %tobool to i8
  store i8 %frombool2, ptr %d_active_add, align 1
  %d_next = getelementptr inbounds %"class.cvc5::internal::theory::quantifiers::inst::InstMatchGenerator", ptr %this1, i32 0, i32 9
  %1 = load ptr, ptr %d_next, align 8
  %cmp = icmp ne ptr %1, null
  br i1 %cmp, label %if.then, label %if.end

if.then:                                          ; preds = %entry
  %d_next3 = getelementptr inbounds %"class.cvc5::internal::theory::quantifiers::inst::InstMatchGenerator", ptr %this1, i32 0, i32 9
  %2 = load ptr, ptr %d_next3, align 8
  %3 = load i8, ptr %val.addr, align 1
  %tobool4 = trunc i8 %3 to i1
  call void @_ZN4cvc58internal6theory11quantifiers4inst18InstMatchGenerator12setActiveAddEb(ptr noundef nonnull align 8 dereferenceable(256) %2, i1 noundef zeroext %tobool4)
  br label %if.end

if.end:                                           ; preds = %if.then, %entry
  ret void
}