; Function Attrs: mustprogress nofree norecurse nosync nounwind memory(readwrite, inaccessiblemem: none) uwtable
define hidden void @_ZN4cvc58internal6theory11quantifiers4inst18InstMatchGenerator12setActiveAddEb(ptr nocapture noundef nonnull align 8 dereferenceable(256) %this, i1 noundef zeroext %val) local_unnamed_addr #6 align 2 {
entry:
  %frombool = zext i1 %val to i8
  br label %tailrecurse

tailrecurse:                                      ; preds = %tailrecurse, %entry
  %this.tr = phi ptr [ %this, %entry ], [ %0, %tailrecurse ]
  %d_active_add = getelementptr inbounds i8, ptr %this.tr, i64 233
  store i8 %frombool, ptr %d_active_add, align 1
  %d_next = getelementptr inbounds i8, ptr %this.tr, i64 152
  %0 = load ptr, ptr %d_next, align 8
  %cmp.not = icmp eq ptr %0, null
  br i1 %cmp.not, label %if.end, label %tailrecurse

if.end:                                           ; preds = %tailrecurse
  ret void
}